; Function Attrs: mustprogress sspstrong uwtable
define noundef zeroext i1 @_ZN3tbb6detail2r122threading_control_impl18try_destroy_clientENS2_15client_snapshotE(ptr noundef nonnull readonly align 8 captures(none) dereferenceable(40) %0, ptr noundef readonly byval(%"struct.tbb::detail::r1::threading_control_impl::client_snapshot") align 8 captures(none) %1) local_unnamed_addr #0 align 2 {
  %3 = getelementptr inbounds nuw i8, ptr %0, i64 8
  %4 = load ptr, ptr %3, align 8, !tbaa !25
  %5 = getelementptr inbounds nuw i8, ptr %1, i64 16
  %6 = load ptr, ptr %5, align 8, !tbaa !116
  %7 = load i64, ptr %1, align 8, !tbaa !83
  %8 = getelementptr inbounds nuw i8, ptr %1, i64 8
  %9 = load i32, ptr %8, align 8, !tbaa !115
  %10 = tail call noundef zeroext i1 @_ZN3tbb6detail2r117thread_dispatcher21try_unregister_clientEPNS1_24thread_dispatcher_clientEmj(ptr noundef nonnull align 8 dereferenceable(152) %4, ptr noundef %6, i64 noundef %7, i32 noundef %9)
  br i1 %10, label %11, label %18

11:                                               ; preds = %2
  %12 = load ptr, ptr %0, align 8, !tbaa !47
  %13 = getelementptr inbounds nuw i8, ptr %1, i64 24
  %14 = load ptr, ptr %13, align 8, !tbaa !117
  %15 = load ptr, ptr %12, align 8, !tbaa !14
  %16 = getelementptr inbounds nuw i8, ptr %15, i64 32
  %17 = load ptr, ptr %16, align 8
  tail call void %17(ptr noundef nonnull align 8 dereferenceable(16) %12, ptr noundef nonnull align 8 dereferenceable(24) %14)
  br label %18

18:                                               ; preds = %2, %11
  ret i1 %10
}